target datalayout = "e-m:e-p270:32:32-p271:32:32-p272:64:64-i64:64-i128:128-f80:128-n8:16:32:64-S128"
target triple = "x86_64-pc-linux-gnu"

%struct.option = type { i32, i32, ptr, ptr, ptr, ptr, i32, ptr, i64, ptr, i64, ptr }
%struct.cmd_reflog_expire_cb = type { i32, i32, i64, i64, i32 }

@.str.30 = private unnamed_addr constant [17 x i8] c"builtin/reflog.c\00", align 1
@.str.31 = private unnamed_addr constant [41 x i8] c"option callback does not expect negation\00", align 1
@.str.32 = private unnamed_addr constant [39 x i8] c"invalid timestamp '%s' given to '--%s'\00", align 1

; Function Attrs: nounwind uwtable
define internal i32 @expire_total_callback(ptr noundef %0, ptr noundef %1, i32 noundef %2) #0 {
  %4 = alloca ptr, align 8
  %5 = alloca ptr, align 8
  %6 = alloca i32, align 4
  %7 = alloca ptr, align 8
  store ptr %0, ptr %4, align 8, !tbaa !73
  store ptr %1, ptr %5, align 8, !tbaa !11
  store i32 %2, ptr %6, align 4, !tbaa !4
  call void @llvm.lifetime.start.p0(i64 8, ptr %7) #9
  %8 = load ptr, ptr %4, align 8, !tbaa !73
  %9 = getelementptr inbounds nuw %struct.option, ptr %8, i32 0, i32 3
  %10 = load ptr, ptr %9, align 8, !tbaa !21
  store ptr %10, ptr %7, align 8, !tbaa !75
  br label %11

11:                                               ; preds = %3
  %12 = load i32, ptr %6, align 4, !tbaa !4
  %13 = icmp ne i32 %12, 0
  br i1 %13, label %14, label %15

14:                                               ; preds = %11
  call void (ptr, i32, ptr, ...) @BUG_fl(ptr noundef @.str.30, i32 noundef 228, ptr noundef @.str.31) #11
  unreachable

15:                                               ; preds = %11
  br label %16

16:                                               ; preds = %15
  br label %17

17:                                               ; preds = %16
  %18 = load ptr, ptr %5, align 8, !tbaa !11
  %19 = load ptr, ptr %7, align 8, !tbaa !75
  %20 = getelementptr inbounds nuw %struct.cmd_reflog_expire_cb, ptr %19, i32 0, i32 2
  %21 = call i32 @parse_expiry_date(ptr noundef %18, ptr noundef %20)
  %22 = icmp ne i32 %21, 0
  br i1 %22, label %23, label %29

23:                                               ; preds = %17
  %24 = call ptr @_(ptr noundef @.str.32)
  %25 = load ptr, ptr %5, align 8, !tbaa !11
  %26 = load ptr, ptr %4, align 8, !tbaa !73
  %27 = getelementptr inbounds nuw %struct.option, ptr %26, i32 0, i32 2
  %28 = load ptr, ptr %27, align 8, !tbaa !20
  call void (ptr, ...) @die(ptr noundef %24, ptr noundef %25, ptr noundef %28) #11
  unreachable

29:                                               ; preds = %17
  %30 = load ptr, ptr %7, align 8, !tbaa !75
  %31 = getelementptr inbounds nuw %struct.cmd_reflog_expire_cb, ptr %30, i32 0, i32 1
  %32 = load i32, ptr %31, align 4, !tbaa !33
  %33 = or i32 %32, 1
  store i32 %33, ptr %31, align 4, !tbaa !33
  call void @llvm.lifetime.end.p0(i64 8, ptr %7) #9
  ret i32 0
}